target datalayout = "e-m:e-p270:32:32-p271:32:32-p272:64:64-i64:64-i128:128-f80:128-n8:16:32:64-S128"
target triple = "x86_64-unknown-linux-gnu"

%"class.net::QuicWallTime" = type { i64 }
%"class.std::vector.0" = type { %"struct.std::_Vector_base.1" }
%"struct.std::_Vector_base.1" = type { %"struct.std::_Vector_base<unsigned int, std::allocator<unsigned int>>::_Vector_impl" }
%"struct.std::_Vector_base<unsigned int, std::allocator<unsigned int>>::_Vector_impl" = type { %"struct.std::_Vector_base<unsigned int, std::allocator<unsigned int>>::_Vector_impl_data" }
%"struct.std::_Vector_base<unsigned int, std::allocator<unsigned int>>::_Vector_impl_data" = type { ptr, ptr, ptr }
%"class.std::map" = type { %"class.std::_Rb_tree" }
%"class.std::_Rb_tree" = type { %"struct.std::_Rb_tree<unsigned int, std::pair<const unsigned int, std::__cxx11::basic_string<char>>, std::_Select1st<std::pair<const unsigned int, std::__cxx11::basic_string<char>>>, std::less<unsigned int>>::_Rb_tree_impl" }
%"struct.std::_Rb_tree<unsigned int, std::pair<const unsigned int, std::__cxx11::basic_string<char>>, std::_Select1st<std::pair<const unsigned int, std::__cxx11::basic_string<char>>>, std::less<unsigned int>>::_Rb_tree_impl" = type { %"struct.std::_Rb_tree_key_compare", %"struct.std::_Rb_tree_header" }
%"struct.std::_Rb_tree_key_compare" = type { %"struct.std::less" }
%"struct.std::less" = type { i8 }
%"struct.std::_Rb_tree_header" = type { %"struct.std::_Rb_tree_node_base", i64 }
%"struct.std::_Rb_tree_node_base" = type { i32, ptr, ptr, ptr }
%"class.std::__cxx11::basic_string" = type { %"struct.std::__cxx11::basic_string<char>::_Alloc_hider", i64, %union.anon }
%"struct.std::__cxx11::basic_string<char>::_Alloc_hider" = type { ptr }
%union.anon = type { i64, [8 x i8] }
%class.scoped_refptr = type { ptr }
%"class.net::QuicCryptoServerConfig::Config" = type { ptr, %"class.net::QuicCryptoConfig", %"class.base::RefCounted", %"class.std::__cxx11::basic_string", %"class.std::__cxx11::basic_string", [8 x i8], %"class.std::vector.128", %"class.std::map", i8, i8, %"class.net::QuicWallTime", %"class.net::QuicWallTime", i64, ptr, %"class.std::unique_ptr.133" }
%"class.net::QuicCryptoConfig" = type { %"class.std::vector.0", %"class.std::vector.0", %"class.std::vector.0", ptr }
%"class.base::RefCounted" = type { %"class.base::subtle::RefCountedBase" }
%"class.base::subtle::RefCountedBase" = type { i32 }
%"class.std::vector.128" = type { %"struct.std::_Vector_base.129" }
%"struct.std::_Vector_base.129" = type { %"struct.std::_Vector_base<net::KeyExchange *, std::allocator<net::KeyExchange *>>::_Vector_impl" }
%"struct.std::_Vector_base<net::KeyExchange *, std::allocator<net::KeyExchange *>>::_Vector_impl" = type { %"struct.std::_Vector_base<net::KeyExchange *, std::allocator<net::KeyExchange *>>::_Vector_impl_data" }
%"struct.std::_Vector_base<net::KeyExchange *, std::allocator<net::KeyExchange *>>::_Vector_impl_data" = type { ptr, ptr, ptr }
%"class.std::unique_ptr.133" = type { %"struct.std::__uniq_ptr_data.134" }
%"struct.std::__uniq_ptr_data.134" = type { %"class.std::__uniq_ptr_impl.135" }
%"class.std::__uniq_ptr_impl.135" = type { %"class.std::tuple.136" }
%"class.std::tuple.136" = type { %"struct.std::_Tuple_impl.137" }
%"struct.std::_Tuple_impl.137" = type { %"struct.std::_Head_base.140" }
%"struct.std::_Head_base.140" = type { ptr }

; Function Attrs: mustprogress nounwind uwtable
define linkonce_odr dso_local noundef zeroext i1 @_ZStltIcSt11char_traitsIcESaIcEEbRKNSt7__cxx1112basic_stringIT_T0_T1_EESA_(ptr noundef nonnull align 8 dereferenceable(32) %__lhs, ptr noundef nonnull align 8 dereferenceable(32) %__rhs) #3 comdat personality ptr @__gxx_personality_v0 {
entry:
  %__lhs.addr = alloca ptr, align 8
  %__rhs.addr = alloca ptr, align 8
  store ptr %__lhs, ptr %__lhs.addr, align 8
  store ptr %__rhs, ptr %__rhs.addr, align 8
  %0 = load ptr, ptr %__lhs.addr, align 8
  %1 = load ptr, ptr %__rhs.addr, align 8
  %call = invoke noundef i32 @_ZNKSt7__cxx1112basic_stringIcSt11char_traitsIcESaIcEE7compareERKS4_(ptr noundef nonnull align 8 dereferenceable(32) %0, ptr noundef nonnull align 8 dereferenceable(32) %1)
          to label %invoke.cont unwind label %terminate.lpad

invoke.cont:                                      ; preds = %entry
  %cmp = icmp slt i32 %call, 0
  ret i1 %cmp

terminate.lpad:                                   ; preds = %entry
  %2 = landingpad { ptr, i32 }
          catch ptr null
  %3 = extractvalue { ptr, i32 } %2, 0
  call void @__clang_call_terminate(ptr %3) #15
  unreachable
}

; Function Attrs: mustprogress nounwind uwtable
define linkonce_odr dso_local noundef ptr @_ZNK13scoped_refptrIN3net22QuicCryptoServerConfig6ConfigEEptEv(ptr noundef nonnull align 8 dereferenceable(8) %this) #3 comdat align 2 {
entry:
  %this.addr = alloca ptr, align 8
  store ptr %this, ptr %this.addr, align 8
  %this1 = load ptr, ptr %this.addr, align 8
  %ptr_ = getelementptr inbounds %class.scoped_refptr, ptr %this1, i32 0, i32 0
  %0 = load ptr, ptr %ptr_, align 8
  ret ptr %0
}

; Function Attrs: mustprogress uwtable
define dso_local noundef zeroext i1 @_ZN3net22QuicCryptoServerConfig25ConfigPrimaryTimeLessThanERK13scoped_refptrINS0_6ConfigEES5_(ptr noundef nonnull align 8 dereferenceable(8) %a, ptr noundef nonnull align 8 dereferenceable(8) %b) #0 align 2 {
entry:
  %retval = alloca i1, align 1
  %a.addr = alloca ptr, align 8
  %b.addr = alloca ptr, align 8
  %agg.tmp = alloca %"class.net::QuicWallTime", align 8
  %agg.tmp6 = alloca %"class.net::QuicWallTime", align 8
  %agg.tmp13 = alloca %"class.net::QuicWallTime", align 8
  store ptr %a, ptr %a.addr, align 8
  store ptr %b, ptr %b.addr, align 8
  %0 = load ptr, ptr %a.addr, align 8
  %call = call noundef ptr @_ZNK13scoped_refptrIN3net22QuicCryptoServerConfig6ConfigEEptEv(ptr noundef nonnull align 8 dereferenceable(8) %0)
  %primary_time = getelementptr inbounds %"class.net::QuicCryptoServerConfig::Config", ptr %call, i32 0, i32 10
  %1 = load ptr, ptr %b.addr, align 8
  %call1 = call noundef ptr @_ZNK13scoped_refptrIN3net22QuicCryptoServerConfig6ConfigEEptEv(ptr noundef nonnull align 8 dereferenceable(8) %1)
  %primary_time2 = getelementptr inbounds %"class.net::QuicCryptoServerConfig::Config", ptr %call1, i32 0, i32 10
  call void @llvm.memcpy.p0.p0.i64(ptr align 8 %agg.tmp, ptr align 8 %primary_time2, i64 8, i1 false)
  %coerce.dive = getelementptr inbounds %"class.net::QuicWallTime", ptr %agg.tmp, i32 0, i32 0
  %2 = load i64, ptr %coerce.dive, align 8
  %call3 = call noundef zeroext i1 @_ZNK3net12QuicWallTime8IsBeforeES0_(ptr noundef nonnull align 8 dereferenceable(8) %primary_time, i64 %2)
  br i1 %call3, label %if.then, label %lor.lhs.false

lor.lhs.false:                                    ; preds = %entry
  %3 = load ptr, ptr %b.addr, align 8
  %call4 = call noundef ptr @_ZNK13scoped_refptrIN3net22QuicCryptoServerConfig6ConfigEEptEv(ptr noundef nonnull align 8 dereferenceable(8) %3)
  %primary_time5 = getelementptr inbounds %"class.net::QuicCryptoServerConfig::Config", ptr %call4, i32 0, i32 10
  %4 = load ptr, ptr %a.addr, align 8
  %call7 = call noundef ptr @_ZNK13scoped_refptrIN3net22QuicCryptoServerConfig6ConfigEEptEv(ptr noundef nonnull align 8 dereferenceable(8) %4)
  %primary_time8 = getelementptr inbounds %"class.net::QuicCryptoServerConfig::Config", ptr %call7, i32 0, i32 10
  call void @llvm.memcpy.p0.p0.i64(ptr align 8 %agg.tmp6, ptr align 8 %primary_time8, i64 8, i1 false)
  %coerce.dive9 = getelementptr inbounds %"class.net::QuicWallTime", ptr %agg.tmp6, i32 0, i32 0
  %5 = load i64, ptr %coerce.dive9, align 8
  %call10 = call noundef zeroext i1 @_ZNK3net12QuicWallTime8IsBeforeES0_(ptr noundef nonnull align 8 dereferenceable(8) %primary_time5, i64 %5)
  br i1 %call10, label %if.then, label %if.else

if.then:                                          ; preds = %lor.lhs.false, %entry
  %6 = load ptr, ptr %a.addr, align 8
  %call11 = call noundef ptr @_ZNK13scoped_refptrIN3net22QuicCryptoServerConfig6ConfigEEptEv(ptr noundef nonnull align 8 dereferenceable(8) %6)
  %primary_time12 = getelementptr inbounds %"class.net::QuicCryptoServerConfig::Config", ptr %call11, i32 0, i32 10
  %7 = load ptr, ptr %b.addr, align 8
  %call14 = call noundef ptr @_ZNK13scoped_refptrIN3net22QuicCryptoServerConfig6ConfigEEptEv(ptr noundef nonnull align 8 dereferenceable(8) %7)
  %primary_time15 = getelementptr inbounds %"class.net::QuicCryptoServerConfig::Config", ptr %call14, i32 0, i32 10
  call void @llvm.memcpy.p0.p0.i64(ptr align 8 %agg.tmp13, ptr align 8 %primary_time15, i64 8, i1 false)
  %coerce.dive16 = getelementptr inbounds %"class.net::QuicWallTime", ptr %agg.tmp13, i32 0, i32 0
  %8 = load i64, ptr %coerce.dive16, align 8
  %call17 = call noundef zeroext i1 @_ZNK3net12QuicWallTime8IsBeforeES0_(ptr noundef nonnull align 8 dereferenceable(8) %primary_time12, i64 %8)
  store i1 %call17, ptr %retval, align 1
  br label %return

if.else:                                          ; preds = %lor.lhs.false
  %9 = load ptr, ptr %a.addr, align 8
  %call18 = call noundef ptr @_ZNK13scoped_refptrIN3net22QuicCryptoServerConfig6ConfigEEptEv(ptr noundef nonnull align 8 dereferenceable(8) %9)
  %priority = getelementptr inbounds %"class.net::QuicCryptoServerConfig::Config", ptr %call18, i32 0, i32 12
  %10 = load i64, ptr %priority, align 8
  %11 = load ptr, ptr %b.addr, align 8
  %call19 = call noundef ptr @_ZNK13scoped_refptrIN3net22QuicCryptoServerConfig6ConfigEEptEv(ptr noundef nonnull align 8 dereferenceable(8) %11)
  %priority20 = getelementptr inbounds %"class.net::QuicCryptoServerConfig::Config", ptr %call19, i32 0, i32 12
  %12 = load i64, ptr %priority20, align 8
  %cmp = icmp ne i64 %10, %12
  br i1 %cmp, label %if.then21, label %if.else27

if.then21:                                        ; preds = %if.else
  %13 = load ptr, ptr %a.addr, align 8
  %call22 = call noundef ptr @_ZNK13scoped_refptrIN3net22QuicCryptoServerConfig6ConfigEEptEv(ptr noundef nonnull align 8 dereferenceable(8) %13)
  %priority23 = getelementptr inbounds %"class.net::QuicCryptoServerConfig::Config", ptr %call22, i32 0, i32 12
  %14 = load i64, ptr %priority23, align 8
  %15 = load ptr, ptr %b.addr, align 8
  %call24 = call noundef ptr @_ZNK13scoped_refptrIN3net22QuicCryptoServerConfig6ConfigEEptEv(ptr noundef nonnull align 8 dereferenceable(8) %15)
  %priority25 = getelementptr inbounds %"class.net::QuicCryptoServerConfig::Config", ptr %call24, i32 0, i32 12
  %16 = load i64, ptr %priority25, align 8
  %cmp26 = icmp ult i64 %14, %16
  store i1 %cmp26, ptr %retval, align 1
  br label %return

if.else27:                                        ; preds = %if.else
  %17 = load ptr, ptr %a.addr, align 8
  %call28 = call noundef ptr @_ZNK13scoped_refptrIN3net22QuicCryptoServerConfig6ConfigEEptEv(ptr noundef nonnull align 8 dereferenceable(8) %17)
  %id = getelementptr inbounds %"class.net::QuicCryptoServerConfig::Config", ptr %call28, i32 0, i32 4
  %18 = load ptr, ptr %b.addr, align 8
  %call29 = call noundef ptr @_ZNK13scoped_refptrIN3net22QuicCryptoServerConfig6ConfigEEptEv(ptr noundef nonnull align 8 dereferenceable(8) %18)
  %id30 = getelementptr inbounds %"class.net::QuicCryptoServerConfig::Config", ptr %call29, i32 0, i32 4
  %call31 = call noundef zeroext i1 @_ZStltIcSt11char_traitsIcESaIcEEbRKNSt7__cxx1112basic_stringIT_T0_T1_EESA_(ptr noundef nonnull align 8 dereferenceable(32) %id, ptr noundef nonnull align 8 dereferenceable(32) %id30) #14
  store i1 %call31, ptr %retval, align 1
  br label %return

return:                                           ; preds = %if.else27, %if.then21, %if.then
  %19 = load i1, ptr %retval, align 1
  ret i1 %19
}