; Function Attrs: mustprogress uwtable
define dso_local noundef zeroext i1 @_ZN3net22QuicCryptoServerConfig25ConfigPrimaryTimeLessThanERK13scoped_refptrINS0_6ConfigEES5_(ptr nocapture noundef nonnull readonly align 8 dereferenceable(8) %a, ptr nocapture noundef nonnull readonly align 8 dereferenceable(8) %b) #0 align 2 personality ptr @__gxx_personality_v0 {
entry:
  %0 = load ptr, ptr %a, align 8
  %primary_time = getelementptr inbounds i8, ptr %0, i64 248
  %1 = load ptr, ptr %b, align 8
  %primary_time2 = getelementptr inbounds i8, ptr %1, i64 248
  %agg.tmp.sroa.0.0.copyload = load i64, ptr %primary_time2, align 8
  %call3 = tail call noundef zeroext i1 @_ZNK3net12QuicWallTime8IsBeforeES0_(ptr noundef nonnull align 8 dereferenceable(8) %primary_time, i64 %agg.tmp.sroa.0.0.copyload)
  br i1 %call3, label %if.then, label %lor.lhs.false

lor.lhs.false:                                    ; preds = %entry
  %2 = load ptr, ptr %b, align 8
  %primary_time5 = getelementptr inbounds i8, ptr %2, i64 248
  %3 = load ptr, ptr %a, align 8
  %primary_time8 = getelementptr inbounds i8, ptr %3, i64 248
  %agg.tmp6.sroa.0.0.copyload = load i64, ptr %primary_time8, align 8
  %call10 = tail call noundef zeroext i1 @_ZNK3net12QuicWallTime8IsBeforeES0_(ptr noundef nonnull align 8 dereferenceable(8) %primary_time5, i64 %agg.tmp6.sroa.0.0.copyload)
  br i1 %call10, label %if.then, label %if.else

if.then:                                          ; preds = %lor.lhs.false, %entry
  %4 = load ptr, ptr %a, align 8
  %primary_time12 = getelementptr inbounds i8, ptr %4, i64 248
  %5 = load ptr, ptr %b, align 8
  %primary_time15 = getelementptr inbounds i8, ptr %5, i64 248
  %agg.tmp13.sroa.0.0.copyload = load i64, ptr %primary_time15, align 8
  %call17 = tail call noundef zeroext i1 @_ZNK3net12QuicWallTime8IsBeforeES0_(ptr noundef nonnull align 8 dereferenceable(8) %primary_time12, i64 %agg.tmp13.sroa.0.0.copyload)
  br label %return

if.else:                                          ; preds = %lor.lhs.false
  %6 = load ptr, ptr %a, align 8
  %priority = getelementptr inbounds i8, ptr %6, i64 264
  %7 = load i64, ptr %priority, align 8
  %8 = load ptr, ptr %b, align 8
  %priority20 = getelementptr inbounds i8, ptr %8, i64 264
  %9 = load i64, ptr %priority20, align 8
  %cmp.not = icmp eq i64 %7, %9
  br i1 %cmp.not, label %if.else27, label %if.then21

if.then21:                                        ; preds = %if.else
  %cmp26 = icmp ult i64 %7, %9
  br label %return

if.else27:                                        ; preds = %if.else
  %id = getelementptr inbounds i8, ptr %6, i64 128
  %id30 = getelementptr inbounds i8, ptr %8, i64 128
  %call.i = invoke noundef i32 @_ZNKSt7__cxx1112basic_stringIcSt11char_traitsIcESaIcEE7compareERKS4_(ptr noundef nonnull align 8 dereferenceable(32) %id, ptr noundef nonnull align 8 dereferenceable(32) %id30)
          to label %_ZStltIcSt11char_traitsIcESaIcEEbRKNSt7__cxx1112basic_stringIT_T0_T1_EESA_.exit unwind label %terminate.lpad.i

terminate.lpad.i:                                 ; preds = %if.else27
  %10 = landingpad { ptr, i32 }
          catch ptr null
  %11 = extractvalue { ptr, i32 } %10, 0
  tail call void @__clang_call_terminate(ptr %11) #24
  unreachable

_ZStltIcSt11char_traitsIcESaIcEEbRKNSt7__cxx1112basic_stringIT_T0_T1_EESA_.exit: ; preds = %if.else27
  %cmp.i = icmp slt i32 %call.i, 0
  br label %return

return:                                           ; preds = %_ZStltIcSt11char_traitsIcESaIcEEbRKNSt7__cxx1112basic_stringIT_T0_T1_EESA_.exit, %if.then21, %if.then
  %retval.0 = phi i1 [ %call17, %if.then ], [ %cmp26, %if.then21 ], [ %cmp.i, %_ZStltIcSt11char_traitsIcESaIcEEbRKNSt7__cxx1112basic_stringIT_T0_T1_EESA_.exit ]
  ret i1 %retval.0
}